; Function Attrs: nounwind uwtable
define hidden ptr @lexbor_bst_destroy(ptr noundef %0, i1 noundef zeroext %1) local_unnamed_addr #0 {
  %3 = icmp eq ptr %0, null
  br i1 %3, label %9, label %4

4:                                                ; preds = %2
  %5 = load ptr, ptr %0, align 8
  %6 = tail call ptr @lexbor_dobject_destroy(ptr noundef %5, i1 noundef zeroext true) #5
  store ptr %6, ptr %0, align 8
  br i1 %1, label %7, label %9

7:                                                ; preds = %4
  %8 = tail call ptr @lexbor_free(ptr noundef nonnull %0) #5
  br label %9

9:                                                ; preds = %4, %2, %7
  %.0 = phi ptr [ %8, %7 ], [ null, %2 ], [ %0, %4 ]
  ret ptr %.0
}